ccopy_reg
_reconstructor
p0
(csklearn.linear_model.logistic
LogisticRegression
p1
c__builtin__
object
p2
Ntp3
Rp4
(dp5
S'C'
p6
cnumpy.core.multiarray
scalar
p7
(cnumpy
dtype
p8
(S'f8'
p9
I0
I1
tp10
Rp11
(I3
S'<'
p12
NNNI-1
I-1
I0
tp13
bS'E\xb2\xbed}^\xad?'
p14
tp15
Rp16
sS'max_iter'
p17
I100
sS'verbose'
p18
I0
sS'intercept_scaling'
p19
I1
sS'dual'
p20
I00
sS'fit_intercept'
p21
I01
sS'classes_'
p22
cnumpy.core.multiarray
_reconstruct
p23
(cnumpy
ndarray
p24
(I0
tp25
S'b'
p26
tp27
Rp28
(I1
(L2L
tp29
g8
(S'i8'
p30
I0
I1
tp31
Rp32
(I3
S'<'
p33
NNNI-1
I-1
I0
tp34
bI00
S'\x00\x00\x00\x00\x00\x00\x00\x00\x01\x00\x00\x00\x00\x00\x00\x00'
p35
tp36
bsS'solver'
p37
S'liblinear'
p38
sS'n_iter_'
p39
g7
(g8
(S'i4'
p40
I0
I1
tp41
Rp42
(I3
S'<'
p43
NNNI-1
I-1
I0
tp44
bS'\x05\x00\x00\x00'
p45
tp46
Rp47
sS'penalty'
p48
S'l2'
p49
sS'multi_class'
p50
S'ovr'
p51
sS'random_state'
p52
NsS'tol'
p53
F0.0001
sS'coef_'
p54
g23
(g24
(I0
tp55
g26
tp56
Rp57
(I1
(L1L
L9L
tp58
g11
I01
S'\x87x\x9e\x16\xafz\xe5\xbf3\x04;\xa8\xc3\x95\xd9\xbf)[\x08\x99\x0b5\xd3\xbf\xc6\\]\xe8q!\xad\xbf\x9dw_a\x06\x8d\xc4?\xa2\xfa\x9e8}\xe3\xf1\xbfS\xe3\x07<\x0f9\xb5?\xea4i\x85\x1er\xc8?L\tr\x8c\xbdK\xbc\xbf'
p59
tp60
bsS'intercept_'
p61
g23
(g24
(I0
tp62
g26
tp63
Rp64
(I1
(L1L
tp65
g11
I00
S'\xa6\xba\x91\x1f\x11A\xe1\xbf'
p66
tp67
bsS'class_weight'
p68
Nsb.